; Function Attrs: mustprogress uwtable
define hidden noundef ptr @_ZNK7datalog14sieve_relation10complementEP9func_decl(ptr noundef nonnull readonly align 8 captures(none) dereferenceable(72) %0, ptr noundef %1) unnamed_addr #3 align 2 {
  %3 = getelementptr inbounds nuw i8, ptr %0, i64 64
  %4 = load ptr, ptr %3, align 8, !tbaa !26
  %5 = load ptr, ptr %4, align 8, !tbaa !3
  %6 = getelementptr inbounds nuw i8, ptr %5, i64 128
  %7 = load ptr, ptr %6, align 8
  %8 = tail call noundef ptr %7(ptr noundef nonnull align 8 dereferenceable(28) %4, ptr noundef %1)
  %9 = getelementptr inbounds nuw i8, ptr %0, i64 8
  %10 = load ptr, ptr %9, align 8, !tbaa !55
  %11 = getelementptr inbounds nuw i8, ptr %0, i64 16
  %12 = getelementptr inbounds nuw i8, ptr %0, i64 32
  %13 = load ptr, ptr %12, align 8, !tbaa !29
  %14 = tail call noalias noundef ptr @_ZN6memory8allocateEm(i64 noundef 72)
  tail call void @_ZN7datalog14sieve_relationC2ERNS_21sieve_relation_pluginERKNS_18relation_signatureEPKbPNS_13relation_baseE(ptr noundef nonnull align 8 dereferenceable(72) %14, ptr noundef nonnull align 8 dereferenceable(104) %10, ptr noundef nonnull readonly align 8 dereferenceable(8) %11, ptr noundef %13, ptr noundef %8)
  ret ptr %14
}